; Function Attrs: nounwind uwtable
define ptr @l___private_Lean_Data_Lsp_Capabilities_0__Lean_Lsp_toJsonWindowClientCapabilities____x40_Lean_Data_Lsp_Capabilities___hyg_570_(ptr noundef %0) #0 {
  %2 = load ptr, ptr @l___private_Lean_Data_Lsp_Capabilities_0__Lean_Lsp_toJsonWindowClientCapabilities____x40_Lean_Data_Lsp_Capabilities___hyg_570____closed__1, align 8, !tbaa !4
  %3 = tail call ptr @l_Lean_Json_opt___at___private_Lean_Data_Lsp_Capabilities_0__Lean_Lsp_toJsonWindowClientCapabilities____x40_Lean_Data_Lsp_Capabilities___hyg_570____spec__1(ptr noundef %2, ptr noundef %0)
  tail call void @lean_inc_heartbeat() #6
  %4 = tail call noalias ptr @mi_malloc_small(i64 noundef 24) #6
  %5 = icmp eq ptr %4, null
  br i1 %5, label %6, label %lean_alloc_ctor.exit

6:                                                ; preds = %1
  tail call void @lean_internal_panic_out_of_memory() #7
  unreachable

lean_alloc_ctor.exit:                             ; preds = %1
  %7 = getelementptr inbounds nuw i8, ptr %4, i64 4
  store i32 1, ptr %4, align 4, !tbaa !8
  store i32 16908312, ptr %7, align 4
  %8 = getelementptr inbounds nuw i8, ptr %4, i64 8
  store ptr %3, ptr %8, align 8, !tbaa !4
  %9 = getelementptr inbounds nuw i8, ptr %4, i64 16
  store ptr inttoptr (i64 1 to ptr), ptr %9, align 8, !tbaa !4
  %10 = load ptr, ptr @l___private_Lean_Data_Lsp_Capabilities_0__Lean_Lsp_toJsonCompletionItemCapabilities____x40_Lean_Data_Lsp_Capabilities___hyg_20____closed__2, align 8, !tbaa !4
  %11 = tail call ptr @l_List_flatMapTR_go___at___private_Lean_Server_Rpc_Basic_0__Lean_Lsp_toJsonRpcRef____x40_Lean_Server_Rpc_Basic___hyg_173____spec__1(ptr noundef nonnull %4, ptr noundef %10) #6
  %12 = tail call ptr @l_Lean_Json_mkObj(ptr noundef %11) #6
  ret ptr %12
}